; Function Attrs: nounwind uwtable
define dso_local i32 @uv_tcp_getpeername(ptr noundef %0, ptr noundef %1, ptr noundef %2) local_unnamed_addr #0 {
  %4 = getelementptr inbounds nuw i8, ptr %0, i64 232
  %5 = load i32, ptr %4, align 8, !tbaa !21
  %.not = icmp eq i32 %5, 0
  br i1 %.not, label %6, label %8

6:                                                ; preds = %3
  %7 = tail call i32 @uv__getsockpeername(ptr noundef nonnull %0, ptr noundef nonnull @getpeername, ptr noundef %1, ptr noundef %2) #8
  br label %8

8:                                                ; preds = %3, %6
  %.0 = phi i32 [ %7, %6 ], [ %5, %3 ]
  ret i32 %.0
}